target datalayout = "e-m:e-p270:32:32-p271:32:32-p272:64:64-i64:64-i128:128-f80:128-n8:16:32:64-S128"
target triple = "x86_64-pc-linux-gnu"

%union.ListCell = type { ptr }
%struct.ForEachState = type { ptr, i32 }
%struct.List = type { i32, i32, i32, ptr, [0 x %union.ListCell] }
%struct.JsonKeyValue = type { i32, ptr, ptr }
%struct.JsonAggConstructor = type { i32, ptr, ptr, ptr, ptr, i32 }
%struct.JsonObjectAgg = type { i32, ptr, ptr, i8, i8 }
%struct.JsonReturning = type { i32, ptr, i32, i32 }
%struct.JsonFormat = type { i32, i32, i32, i32 }

@.str.152 = private unnamed_addr constant [17 x i8] c"JSON_OBJECTAGG()\00", align 1

; Function Attrs: nounwind uwtable
define internal ptr @transformJsonConstructorOutput(ptr noundef %0, ptr noundef %1, ptr noundef %2) #0 {
  %4 = alloca ptr, align 8
  %5 = alloca ptr, align 8
  %6 = alloca ptr, align 8
  %7 = alloca ptr, align 8
  %8 = alloca ptr, align 8
  %9 = alloca i8, align 1
  %10 = alloca %struct.ForEachState, align 8
  %11 = alloca i32, align 4
  %12 = alloca ptr, align 8
  %13 = alloca i32, align 4
  store ptr %0, ptr %4, align 8
  store ptr %1, ptr %5, align 8
  store ptr %2, ptr %6, align 8
  call void @llvm.lifetime.start.p0(i64 8, ptr %7) #8
  %14 = load ptr, ptr %4, align 8
  %15 = load ptr, ptr %5, align 8
  %16 = call ptr @transformJsonOutput(ptr noundef %14, ptr noundef %15, i1 noundef zeroext true)
  store ptr %16, ptr %7, align 8
  %17 = load ptr, ptr %7, align 8
  %18 = getelementptr inbounds nuw %struct.JsonReturning, ptr %17, i32 0, i32 2
  %19 = load i32, ptr %18, align 8
  %20 = icmp ne i32 %19, 0
  br i1 %20, label %98, label %21

21:                                               ; preds = %3
  call void @llvm.lifetime.start.p0(i64 8, ptr %8) #8
  call void @llvm.lifetime.start.p0(i64 1, ptr %9) #8
  store i8 0, ptr %9, align 1
  call void @llvm.lifetime.start.p0(i64 16, ptr %10) #8
  %22 = getelementptr inbounds nuw %struct.ForEachState, ptr %10, i32 0, i32 0
  %23 = load ptr, ptr %6, align 8
  store ptr %23, ptr %22, align 8
  %24 = getelementptr inbounds nuw %struct.ForEachState, ptr %10, i32 0, i32 1
  store i32 0, ptr %24, align 8
  %25 = getelementptr i8, ptr %10, i64 12
  call void @llvm.memset.p0.i64(ptr align 4 %25, i8 0, i64 4, i1 false)
  br label %26

26:                                               ; preds = %73, %21
  %27 = getelementptr inbounds nuw %struct.ForEachState, ptr %10, i32 0, i32 0
  %28 = load ptr, ptr %27, align 8
  %29 = icmp ne ptr %28, null
  br i1 %29, label %30, label %47

30:                                               ; preds = %26
  %31 = getelementptr inbounds nuw %struct.ForEachState, ptr %10, i32 0, i32 1
  %32 = load i32, ptr %31, align 8
  %33 = getelementptr inbounds nuw %struct.ForEachState, ptr %10, i32 0, i32 0
  %34 = load ptr, ptr %33, align 8
  %35 = getelementptr inbounds nuw %struct.List, ptr %34, i32 0, i32 1
  %36 = load i32, ptr %35, align 4
  %37 = icmp slt i32 %32, %36
  br i1 %37, label %38, label %47

38:                                               ; preds = %30
  %39 = getelementptr inbounds nuw %struct.ForEachState, ptr %10, i32 0, i32 0
  %40 = load ptr, ptr %39, align 8
  %41 = getelementptr inbounds nuw %struct.List, ptr %40, i32 0, i32 3
  %42 = load ptr, ptr %41, align 8
  %43 = getelementptr inbounds nuw %struct.ForEachState, ptr %10, i32 0, i32 1
  %44 = load i32, ptr %43, align 8
  %45 = sext i32 %44 to i64
  %46 = getelementptr inbounds %union.ListCell, ptr %42, i64 %45
  store ptr %46, ptr %8, align 8
  br label %48

47:                                               ; preds = %30, %26
  store ptr null, ptr %8, align 8
  br label %48

48:                                               ; preds = %47, %38
  %49 = phi i32 [ 1, %38 ], [ 0, %47 ]
  %50 = icmp ne i32 %49, 0
  br i1 %50, label %52, label %51

51:                                               ; preds = %48
  store i32 2, ptr %11, align 4
  br label %77

52:                                               ; preds = %48
  call void @llvm.lifetime.start.p0(i64 8, ptr %12) #8
  %53 = load ptr, ptr %8, align 8
  %54 = load ptr, ptr %53, align 8
  store ptr %54, ptr %12, align 8
  call void @llvm.lifetime.start.p0(i64 4, ptr %13) #8
  %55 = load ptr, ptr %12, align 8
  %56 = call i32 @exprType(ptr noundef %55)
  store i32 %56, ptr %13, align 4
  %57 = load i32, ptr %13, align 4
  %58 = icmp eq i32 %57, 3802
  %59 = zext i1 %58 to i32
  %60 = load i8, ptr %9, align 1, !range !6, !noundef !7
  %61 = trunc i8 %60 to i1
  %62 = zext i1 %61 to i32
  %63 = or i32 %62, %59
  %64 = icmp ne i32 %63, 0
  %65 = zext i1 %64 to i8
  store i8 %65, ptr %9, align 1
  %66 = load i8, ptr %9, align 1, !range !6, !noundef !7
  %67 = trunc i8 %66 to i1
  br i1 %67, label %68, label %69

68:                                               ; preds = %52
  store i32 2, ptr %11, align 4
  br label %70

69:                                               ; preds = %52
  store i32 0, ptr %11, align 4
  br label %70

70:                                               ; preds = %69, %68
  call void @llvm.lifetime.end.p0(i64 4, ptr %13) #8
  call void @llvm.lifetime.end.p0(i64 8, ptr %12) #8
  %71 = load i32, ptr %11, align 4
  switch i32 %71, label %77 [
    i32 0, label %72
  ]

72:                                               ; preds = %70
  br label %73

73:                                               ; preds = %72
  %74 = getelementptr inbounds nuw %struct.ForEachState, ptr %10, i32 0, i32 1
  %75 = load i32, ptr %74, align 8
  %76 = add i32 %75, 1
  store i32 %76, ptr %74, align 8
  br label %26, !llvm.loop !37

77:                                               ; preds = %70, %51
  call void @llvm.lifetime.end.p0(i64 16, ptr %10) #8
  br label %78

78:                                               ; preds = %77
  %79 = load i8, ptr %9, align 1, !range !6, !noundef !7
  %80 = trunc i8 %79 to i1
  br i1 %80, label %81, label %88

81:                                               ; preds = %78
  %82 = load ptr, ptr %7, align 8
  %83 = getelementptr inbounds nuw %struct.JsonReturning, ptr %82, i32 0, i32 2
  store i32 3802, ptr %83, align 8
  %84 = load ptr, ptr %7, align 8
  %85 = getelementptr inbounds nuw %struct.JsonReturning, ptr %84, i32 0, i32 1
  %86 = load ptr, ptr %85, align 8
  %87 = getelementptr inbounds nuw %struct.JsonFormat, ptr %86, i32 0, i32 1
  store i32 2, ptr %87, align 4
  br label %95

88:                                               ; preds = %78
  %89 = load ptr, ptr %7, align 8
  %90 = getelementptr inbounds nuw %struct.JsonReturning, ptr %89, i32 0, i32 2
  store i32 114, ptr %90, align 8
  %91 = load ptr, ptr %7, align 8
  %92 = getelementptr inbounds nuw %struct.JsonReturning, ptr %91, i32 0, i32 1
  %93 = load ptr, ptr %92, align 8
  %94 = getelementptr inbounds nuw %struct.JsonFormat, ptr %93, i32 0, i32 1
  store i32 1, ptr %94, align 4
  br label %95

95:                                               ; preds = %88, %81
  %96 = load ptr, ptr %7, align 8
  %97 = getelementptr inbounds nuw %struct.JsonReturning, ptr %96, i32 0, i32 3
  store i32 -1, ptr %97, align 4
  call void @llvm.lifetime.end.p0(i64 1, ptr %9) #8
  call void @llvm.lifetime.end.p0(i64 8, ptr %8) #8
  br label %98

98:                                               ; preds = %95, %3
  %99 = load ptr, ptr %7, align 8
  store i32 1, ptr %11, align 4
  call void @llvm.lifetime.end.p0(i64 8, ptr %7) #8
  ret ptr %99
}

; Function Attrs: nounwind uwtable
define internal ptr @transformJsonObjectAgg(ptr noundef %0, ptr noundef %1) #0 {
  %3 = alloca ptr, align 8
  %4 = alloca ptr, align 8
  %5 = alloca ptr, align 8
  %6 = alloca ptr, align 8
  %7 = alloca ptr, align 8
  %8 = alloca ptr, align 8
  %9 = alloca i32, align 4
  %10 = alloca i32, align 4
  %11 = alloca %union.ListCell, align 8
  %12 = alloca %union.ListCell, align 8
  store ptr %0, ptr %3, align 8
  store ptr %1, ptr %4, align 8
  call void @llvm.lifetime.start.p0(i64 8, ptr %5) #8
  call void @llvm.lifetime.start.p0(i64 8, ptr %6) #8
  call void @llvm.lifetime.start.p0(i64 8, ptr %7) #8
  call void @llvm.lifetime.start.p0(i64 8, ptr %8) #8
  call void @llvm.lifetime.start.p0(i64 4, ptr %9) #8
  call void @llvm.lifetime.start.p0(i64 4, ptr %10) #8
  %13 = load ptr, ptr %3, align 8
  %14 = load ptr, ptr %4, align 8
  %15 = getelementptr inbounds nuw %struct.JsonObjectAgg, ptr %14, i32 0, i32 2
  %16 = load ptr, ptr %15, align 8
  %17 = getelementptr inbounds nuw %struct.JsonKeyValue, ptr %16, i32 0, i32 1
  %18 = load ptr, ptr %17, align 8
  %19 = call ptr @transformExprRecurse(ptr noundef %13, ptr noundef %18)
  store ptr %19, ptr %6, align 8
  %20 = load ptr, ptr %3, align 8
  %21 = load ptr, ptr %4, align 8
  %22 = getelementptr inbounds nuw %struct.JsonObjectAgg, ptr %21, i32 0, i32 2
  %23 = load ptr, ptr %22, align 8
  %24 = getelementptr inbounds nuw %struct.JsonKeyValue, ptr %23, i32 0, i32 2
  %25 = load ptr, ptr %24, align 8
  %26 = call ptr @transformJsonValueExpr(ptr noundef %20, ptr noundef @.str.152, ptr noundef %25, i32 noundef 0, i32 noundef 0, i1 noundef zeroext false)
  store ptr %26, ptr %7, align 8
  %27 = load ptr, ptr %6, align 8
  store ptr %27, ptr %11, align 8
  %28 = load ptr, ptr %7, align 8
  store ptr %28, ptr %12, align 8
  %29 = getelementptr inbounds nuw %union.ListCell, ptr %11, i32 0, i32 0
  %30 = load ptr, ptr %29, align 8
  %31 = getelementptr inbounds nuw %union.ListCell, ptr %12, i32 0, i32 0
  %32 = load ptr, ptr %31, align 8
  %33 = call ptr @list_make2_impl(i32 noundef 1, ptr %30, ptr %32)
  store ptr %33, ptr %8, align 8
  %34 = load ptr, ptr %3, align 8
  %35 = load ptr, ptr %4, align 8
  %36 = getelementptr inbounds nuw %struct.JsonObjectAgg, ptr %35, i32 0, i32 1
  %37 = load ptr, ptr %36, align 8
  %38 = getelementptr inbounds nuw %struct.JsonAggConstructor, ptr %37, i32 0, i32 1
  %39 = load ptr, ptr %38, align 8
  %40 = load ptr, ptr %8, align 8
  %41 = call ptr @transformJsonConstructorOutput(ptr noundef %34, ptr noundef %39, ptr noundef %40)
  store ptr %41, ptr %5, align 8
  %42 = load ptr, ptr %5, align 8
  %43 = getelementptr inbounds nuw %struct.JsonReturning, ptr %42, i32 0, i32 1
  %44 = load ptr, ptr %43, align 8
  %45 = getelementptr inbounds nuw %struct.JsonFormat, ptr %44, i32 0, i32 1
  %46 = load i32, ptr %45, align 4
  %47 = icmp eq i32 %46, 2
  br i1 %47, label %48, label %70

48:                                               ; preds = %2
  %49 = load ptr, ptr %4, align 8
  %50 = getelementptr inbounds nuw %struct.JsonObjectAgg, ptr %49, i32 0, i32 3
  %51 = load i8, ptr %50, align 8, !range !6, !noundef !7
  %52 = trunc i8 %51 to i1
  br i1 %52, label %53, label %61

53:                                               ; preds = %48
  %54 = load ptr, ptr %4, align 8
  %55 = getelementptr inbounds nuw %struct.JsonObjectAgg, ptr %54, i32 0, i32 4
  %56 = load i8, ptr %55, align 1, !range !6, !noundef !7
  %57 = trunc i8 %56 to i1
  br i1 %57, label %58, label %59

58:                                               ; preds = %53
  store i32 6290, ptr %9, align 4
  br label %60

59:                                               ; preds = %53
  store i32 6288, ptr %9, align 4
  br label %60

60:                                               ; preds = %59, %58
  br label %69

61:                                               ; preds = %48
  %62 = load ptr, ptr %4, align 8
  %63 = getelementptr inbounds nuw %struct.JsonObjectAgg, ptr %62, i32 0, i32 4
  %64 = load i8, ptr %63, align 1, !range !6, !noundef !7
  %65 = trunc i8 %64 to i1
  br i1 %65, label %66, label %67

66:                                               ; preds = %61
  store i32 6289, ptr %9, align 4
  br label %68

67:                                               ; preds = %61
  store i32 3270, ptr %9, align 4
  br label %68

68:                                               ; preds = %67, %66
  br label %69

69:                                               ; preds = %68, %60
  store i32 3802, ptr %10, align 4
  br label %92

70:                                               ; preds = %2
  %71 = load ptr, ptr %4, align 8
  %72 = getelementptr inbounds nuw %struct.JsonObjectAgg, ptr %71, i32 0, i32 3
  %73 = load i8, ptr %72, align 8, !range !6, !noundef !7
  %74 = trunc i8 %73 to i1
  br i1 %74, label %75, label %83

75:                                               ; preds = %70
  %76 = load ptr, ptr %4, align 8
  %77 = getelementptr inbounds nuw %struct.JsonObjectAgg, ptr %76, i32 0, i32 4
  %78 = load i8, ptr %77, align 1, !range !6, !noundef !7
  %79 = trunc i8 %78 to i1
  br i1 %79, label %80, label %81

80:                                               ; preds = %75
  store i32 6282, ptr %9, align 4
  br label %82

81:                                               ; preds = %75
  store i32 6280, ptr %9, align 4
  br label %82

82:                                               ; preds = %81, %80
  br label %91

83:                                               ; preds = %70
  %84 = load ptr, ptr %4, align 8
  %85 = getelementptr inbounds nuw %struct.JsonObjectAgg, ptr %84, i32 0, i32 4
  %86 = load i8, ptr %85, align 1, !range !6, !noundef !7
  %87 = trunc i8 %86 to i1
  br i1 %87, label %88, label %89

88:                                               ; preds = %83
  store i32 6281, ptr %9, align 4
  br label %90

89:                                               ; preds = %83
  store i32 3197, ptr %9, align 4
  br label %90

90:                                               ; preds = %89, %88
  br label %91

91:                                               ; preds = %90, %82
  store i32 114, ptr %10, align 4
  br label %92

92:                                               ; preds = %91, %69
  %93 = load ptr, ptr %3, align 8
  %94 = load ptr, ptr %4, align 8
  %95 = getelementptr inbounds nuw %struct.JsonObjectAgg, ptr %94, i32 0, i32 1
  %96 = load ptr, ptr %95, align 8
  %97 = load ptr, ptr %5, align 8
  %98 = load ptr, ptr %8, align 8
  %99 = load i32, ptr %9, align 4
  %100 = load i32, ptr %10, align 4
  %101 = load ptr, ptr %4, align 8
  %102 = getelementptr inbounds nuw %struct.JsonObjectAgg, ptr %101, i32 0, i32 4
  %103 = load i8, ptr %102, align 1, !range !6, !noundef !7
  %104 = trunc i8 %103 to i1
  %105 = load ptr, ptr %4, align 8
  %106 = getelementptr inbounds nuw %struct.JsonObjectAgg, ptr %105, i32 0, i32 3
  %107 = load i8, ptr %106, align 8, !range !6, !noundef !7
  %108 = trunc i8 %107 to i1
  %109 = call ptr @transformJsonAggConstructor(ptr noundef %93, ptr noundef %96, ptr noundef %97, ptr noundef %98, i32 noundef %99, i32 noundef %100, i32 noundef 3, i1 noundef zeroext %104, i1 noundef zeroext %108)
  call void @llvm.lifetime.end.p0(i64 4, ptr %10) #8
  call void @llvm.lifetime.end.p0(i64 4, ptr %9) #8
  call void @llvm.lifetime.end.p0(i64 8, ptr %8) #8
  call void @llvm.lifetime.end.p0(i64 8, ptr %7) #8
  call void @llvm.lifetime.end.p0(i64 8, ptr %6) #8
  call void @llvm.lifetime.end.p0(i64 8, ptr %5) #8
  ret ptr %109
}