; Function Attrs: nounwind uwtable
define internal fastcc noundef ptr @transformJsonObjectAgg(ptr noundef %0, ptr noundef nonnull readonly captures(none) %1) unnamed_addr #0 {
  %3 = getelementptr inbounds nuw i8, ptr %1, i64 16
  %4 = load ptr, ptr %3, align 8
  %5 = getelementptr inbounds nuw i8, ptr %4, i64 8
  %6 = load ptr, ptr %5, align 8
  %7 = tail call fastcc ptr @transformExprRecurse(ptr noundef %0, ptr noundef %6)
  %8 = load ptr, ptr %3, align 8
  %9 = getelementptr inbounds nuw i8, ptr %8, i64 16
  %10 = load ptr, ptr %9, align 8
  %11 = tail call fastcc ptr @transformJsonValueExpr(ptr noundef %0, ptr noundef nonnull @.str.152, ptr noundef %10, i32 noundef 0, i32 noundef 0, i1 noundef zeroext false)
  %12 = tail call ptr @list_make2_impl(i32 noundef 1, ptr %7, ptr %11) #9
  %13 = getelementptr inbounds nuw i8, ptr %1, i64 8
  %14 = load ptr, ptr %13, align 8
  %15 = getelementptr inbounds nuw i8, ptr %14, i64 8
  %16 = load ptr, ptr %15, align 8
  %17 = tail call fastcc ptr @transformJsonOutput(ptr noundef %0, ptr noundef %16, i1 noundef zeroext true)
  %18 = getelementptr inbounds nuw i8, ptr %17, i64 16
  %19 = load i32, ptr %18, align 8
  %.not.i = icmp eq i32 %19, 0
  br i1 %.not.i, label %.preheader.i, label %transformJsonConstructorOutput.exit

.preheader.i:                                     ; preds = %2
  %.not23.i = icmp eq ptr %12, null
  br i1 %.not23.i, label %.split.i, label %.lr.ph.i

.lr.ph.i:                                         ; preds = %.preheader.i
  %20 = getelementptr inbounds nuw i8, ptr %12, i64 4
  %21 = getelementptr inbounds nuw i8, ptr %12, i64 16
  %22 = load i32, ptr %20, align 4
  %23 = icmp sgt i32 %22, 0
  br i1 %23, label %.lr.ph34.i, label %.split.i

24:                                               ; preds = %.lr.ph34.i
  %indvars.iv.next.i = add nuw nsw i64 %indvars.iv.i, 1
  %25 = load i32, ptr %20, align 4
  %26 = sext i32 %25 to i64
  %27 = icmp slt i64 %indvars.iv.next.i, %26
  br i1 %27, label %.lr.ph34.i, label %.split.i

.lr.ph34.i:                                       ; preds = %.lr.ph.i, %24
  %indvars.iv.i = phi i64 [ %indvars.iv.next.i, %24 ], [ 0, %.lr.ph.i ]
  %28 = load ptr, ptr %21, align 8
  %29 = getelementptr inbounds nuw %union.ListCell, ptr %28, i64 %indvars.iv.i
  %30 = load ptr, ptr %29, align 8
  %31 = tail call i32 @exprType(ptr noundef %30) #9
  %.not30.i = icmp eq i32 %31, 3802
  br i1 %.not30.i, label %.split.i, label %24

.split.i:                                         ; preds = %.lr.ph34.i, %24, %.lr.ph.i, %.preheader.i
  %.sink39.i = phi i32 [ 114, %.lr.ph.i ], [ 114, %.preheader.i ], [ 114, %24 ], [ 3802, %.lr.ph34.i ]
  %.sink.i = phi i32 [ 1, %.lr.ph.i ], [ 1, %.preheader.i ], [ 1, %24 ], [ 2, %.lr.ph34.i ]
  store i32 %.sink39.i, ptr %18, align 8
  %32 = getelementptr inbounds nuw i8, ptr %17, i64 8
  %33 = load ptr, ptr %32, align 8
  %34 = getelementptr inbounds nuw i8, ptr %33, i64 4
  store i32 %.sink.i, ptr %34, align 4
  %35 = getelementptr inbounds nuw i8, ptr %17, i64 20
  store i32 -1, ptr %35, align 4
  br label %transformJsonConstructorOutput.exit

transformJsonConstructorOutput.exit:              ; preds = %2, %.split.i
  %36 = getelementptr inbounds nuw i8, ptr %17, i64 8
  %37 = load ptr, ptr %36, align 8
  %38 = getelementptr inbounds nuw i8, ptr %37, i64 4
  %39 = load i32, ptr %38, align 4
  %40 = icmp eq i32 %39, 2
  %41 = getelementptr inbounds nuw i8, ptr %1, i64 24
  %42 = load i8, ptr %41, align 8, !range !4, !noundef !5
  %43 = trunc nuw i8 %42 to i1
  %44 = getelementptr inbounds nuw i8, ptr %1, i64 25
  %45 = load i8, ptr %44, align 1, !range !4, !noundef !5
  %46 = trunc nuw i8 %45 to i1
  br i1 %40, label %47, label %50

47:                                               ; preds = %transformJsonConstructorOutput.exit
  br i1 %43, label %48, label %49

48:                                               ; preds = %47
  %. = select i1 %46, i32 6290, i32 6288
  br label %53

49:                                               ; preds = %47
  %.25 = select i1 %46, i32 6289, i32 3270
  br label %53

50:                                               ; preds = %transformJsonConstructorOutput.exit
  br i1 %43, label %51, label %52

51:                                               ; preds = %50
  %.26 = select i1 %46, i32 6282, i32 6280
  br label %53

52:                                               ; preds = %50
  %.27 = select i1 %46, i32 6281, i32 3197
  br label %53

53:                                               ; preds = %51, %52, %48, %49
  %.pre-phi28 = phi i1 [ true, %51 ], [ false, %52 ], [ true, %48 ], [ false, %49 ]
  %.024 = phi i32 [ 114, %51 ], [ 114, %52 ], [ 3802, %48 ], [ 3802, %49 ]
  %.1 = phi i32 [ %.26, %51 ], [ %.27, %52 ], [ %., %48 ], [ %.25, %49 ]
  %54 = load ptr, ptr %13, align 8
  %55 = tail call fastcc ptr @transformJsonAggConstructor(ptr noundef %0, ptr noundef %54, ptr noundef nonnull %17, ptr noundef %12, i32 noundef %.1, i32 noundef %.024, i32 noundef 3, i1 noundef zeroext %46, i1 noundef zeroext %.pre-phi28)
  ret ptr %55
}